target datalayout = "e-m:e-p270:32:32-p271:32:32-p272:64:64-i64:64-i128:128-f80:128-n8:16:32:64-S128"
target triple = "x86_64-pc-linux-gnu"

%class.OopHandle = type { ptr }
%class.JvmtiThreadState = type { ptr, ptr, %class.OopHandle, ptr, i8, i8, i8, i8, i8, i32, i32, ptr, i32, ptr, i32, i32, %class.JvmtiThreadEventEnable, ptr, ptr, ptr, ptr, ptr, ptr, ptr, ptr, i8, i32, i32, %union.jvalue, ptr }
%class.JvmtiThreadEventEnable = type { %class.JvmtiEventEnabled }
%class.JvmtiEventEnabled = type { i64 }
%union.jvalue = type { i64 }
%class.JvmtiEnvThreadStateIterator = type { ptr }
%class.Thread = type { %class.ThreadShadow.base, i64, [43 x i64], ptr, ptr, i32, ptr, i64, i64, %class.ThreadLocalAllocBuffer, i64, %class.ThreadHeapSampler, %class.ThreadStatisticalInfo, %class.JfrThreadLocal, ptr, ptr, ptr, ptr, ptr, ptr, i64, i32, i32, ptr, i32, i32, i32, i32, i8, ptr }
%class.ThreadShadow.base = type <{ ptr, ptr, ptr, i32 }>
%class.ThreadLocalAllocBuffer = type <{ ptr, ptr, ptr, ptr, ptr, i64, i64, i64, i64, i32, i32, i32, i32, i64, %class.AdaptiveWeightedAverage, [4 x i8] }>
%class.AdaptiveWeightedAverage = type { float, i32, i32, i8, float }
%class.ThreadHeapSampler = type { i64 }
%class.ThreadStatisticalInfo = type { i64, i64 }
%class.JfrThreadLocal = type <{ ptr, ptr, ptr, ptr, ptr, ptr, ptr, ptr, ptr, ptr, %class.RefCountHandle, i64, i64, i64, i64, i64, i64, i64, i64, i64, i64, i64, i32, i32, i32, i16, i8, i8, i8, i8, i8, [5 x i8] }>
%class.RefCountHandle = type { ptr }
%class.JvmtiEnvThreadState = type { ptr, ptr, ptr, ptr, i32, i8, i8, %class.JvmtiEnvThreadEventEnable, ptr, ptr }
%class.JvmtiEnvThreadEventEnable = type { %class.JvmtiEventEnabled, %class.JvmtiEventEnabled }

@_ZN6Thread12_thr_currentE = external thread_local global ptr, align 8

; Function Attrs: mustprogress nounwind uwtable
define linkonce_odr hidden noundef ptr @_ZN6Thread15current_or_nullEv() #1 comdat align 2 {
  %1 = call align 8 ptr @llvm.threadlocal.address.p0(ptr align 8 @_ZN6Thread12_thr_currentE)
  %2 = load ptr, ptr %1, align 8
  ret ptr %2
}

; Function Attrs: mustprogress nounwind uwtable
define linkonce_odr hidden void @_ZN6Thread27leaving_jvmti_env_iterationEv(ptr noundef nonnull align 8 dereferenceable(888) %0) #1 comdat align 2 {
  %2 = alloca ptr, align 8
  store ptr %0, ptr %2, align 8
  %3 = load ptr, ptr %2, align 8
  %4 = getelementptr inbounds %class.Thread, ptr %3, i32 0, i32 22
  %5 = load volatile i32, ptr %4, align 4
  %6 = add nsw i32 %5, -1
  store volatile i32 %6, ptr %4, align 4
  ret void
}

; Function Attrs: mustprogress nounwind uwtable
define linkonce_odr hidden noundef ptr @_ZN19JvmtiEnvThreadState4nextEv(ptr noundef nonnull align 8 dereferenceable(72) %0) #1 comdat align 2 {
  %2 = alloca ptr, align 8
  store ptr %0, ptr %2, align 8
  %3 = load ptr, ptr %2, align 8
  %4 = getelementptr inbounds %class.JvmtiEnvThreadState, ptr %3, i32 0, i32 2
  %5 = load ptr, ptr %4, align 8
  ret ptr %5
}

; Function Attrs: mustprogress nounwind uwtable
define linkonce_odr hidden void @_ZN19JvmtiEnvThreadState20set_current_locationEP10_jmethodIDi(ptr noundef nonnull align 8 dereferenceable(72) %0, ptr noundef %1, i32 noundef %2) #1 comdat align 2 {
  %4 = alloca ptr, align 8
  %5 = alloca ptr, align 8
  %6 = alloca i32, align 4
  store ptr %0, ptr %4, align 8
  store ptr %1, ptr %5, align 8
  store i32 %2, ptr %6, align 4
  %7 = load ptr, ptr %4, align 8
  %8 = load ptr, ptr %5, align 8
  %9 = getelementptr inbounds %class.JvmtiEnvThreadState, ptr %7, i32 0, i32 3
  store ptr %8, ptr %9, align 8
  %10 = load i32, ptr %6, align 4
  %11 = getelementptr inbounds %class.JvmtiEnvThreadState, ptr %7, i32 0, i32 4
  store i32 %10, ptr %11, align 8
  ret void
}

; Function Attrs: mustprogress nounwind uwtable
define linkonce_odr hidden noundef ptr @_ZN16JvmtiThreadState21head_env_thread_stateEv(ptr noundef nonnull align 8 dereferenceable(184) %0) #1 comdat align 2 {
  %2 = alloca ptr, align 8
  store ptr %0, ptr %2, align 8
  %3 = load ptr, ptr %2, align 8
  %4 = getelementptr inbounds %class.JvmtiThreadState, ptr %3, i32 0, i32 17
  %5 = load ptr, ptr %4, align 8
  ret ptr %5
}

; Function Attrs: mustprogress nounwind uwtable
define linkonce_odr hidden void @_ZN6Thread28entering_jvmti_env_iterationEv(ptr noundef nonnull align 8 dereferenceable(888) %0) #1 comdat align 2 {
  %2 = alloca ptr, align 8
  store ptr %0, ptr %2, align 8
  %3 = load ptr, ptr %2, align 8
  %4 = getelementptr inbounds %class.Thread, ptr %3, i32 0, i32 22
  %5 = load volatile i32, ptr %4, align 4
  %6 = add nsw i32 %5, 1
  store volatile i32 %6, ptr %4, align 4
  ret void
}

; Function Attrs: mustprogress nounwind uwtable
define linkonce_odr hidden noundef ptr @_ZN6Thread7currentEv() #1 comdat align 2 {
  %1 = alloca ptr, align 8
  %2 = call noundef ptr @_ZN6Thread15current_or_nullEv()
  store ptr %2, ptr %1, align 8
  %3 = load ptr, ptr %1, align 8
  ret ptr %3
}

; Function Attrs: mustprogress nounwind uwtable
define linkonce_odr hidden void @_ZN27JvmtiEnvThreadStateIteratorD2Ev(ptr noundef nonnull align 8 dereferenceable(8) %0) unnamed_addr #1 comdat align 2 {
  %2 = alloca ptr, align 8
  store ptr %0, ptr %2, align 8
  %3 = call noundef ptr @_ZN6Thread7currentEv()
  call void @_ZN6Thread27leaving_jvmti_env_iterationEv(ptr noundef nonnull align 8 dereferenceable(888) %3)
  ret void
}

; Function Attrs: mustprogress nounwind uwtable
define linkonce_odr hidden noundef ptr @_ZN27JvmtiEnvThreadStateIterator4nextEP19JvmtiEnvThreadState(ptr noundef nonnull align 8 dereferenceable(8) %0, ptr noundef %1) #1 comdat align 2 {
  %3 = alloca ptr, align 8
  %4 = alloca ptr, align 8
  store ptr %0, ptr %3, align 8
  store ptr %1, ptr %4, align 8
  %5 = load ptr, ptr %4, align 8
  %6 = call noundef ptr @_ZN19JvmtiEnvThreadState4nextEv(ptr noundef nonnull align 8 dereferenceable(72) %5)
  ret ptr %6
}

; Function Attrs: mustprogress nounwind uwtable
define linkonce_odr hidden void @_ZN19JvmtiEnvThreadState22clear_current_locationEv(ptr noundef nonnull align 8 dereferenceable(72) %0) #1 comdat align 2 {
  %2 = alloca ptr, align 8
  store ptr %0, ptr %2, align 8
  %3 = load ptr, ptr %2, align 8
  call void @_ZN19JvmtiEnvThreadState20set_current_locationEP10_jmethodIDi(ptr noundef nonnull align 8 dereferenceable(72) %3, ptr noundef null, i32 noundef 0)
  ret void
}

; Function Attrs: mustprogress nounwind uwtable
define linkonce_odr hidden noundef ptr @_ZN27JvmtiEnvThreadStateIterator5firstEv(ptr noundef nonnull align 8 dereferenceable(8) %0) #1 comdat align 2 {
  %2 = alloca ptr, align 8
  store ptr %0, ptr %2, align 8
  %3 = load ptr, ptr %2, align 8
  %4 = getelementptr inbounds %class.JvmtiEnvThreadStateIterator, ptr %3, i32 0, i32 0
  %5 = load ptr, ptr %4, align 8
  %6 = call noundef ptr @_ZN16JvmtiThreadState21head_env_thread_stateEv(ptr noundef nonnull align 8 dereferenceable(184) %5)
  ret ptr %6
}

; Function Attrs: mustprogress nounwind uwtable
define linkonce_odr hidden void @_ZN27JvmtiEnvThreadStateIteratorC2EP16JvmtiThreadState(ptr noundef nonnull align 8 dereferenceable(8) %0, ptr noundef %1) unnamed_addr #1 comdat align 2 {
  %3 = alloca ptr, align 8
  %4 = alloca ptr, align 8
  store ptr %0, ptr %3, align 8
  store ptr %1, ptr %4, align 8
  %5 = load ptr, ptr %3, align 8
  %6 = load ptr, ptr %4, align 8
  %7 = getelementptr inbounds %class.JvmtiEnvThreadStateIterator, ptr %5, i32 0, i32 0
  store ptr %6, ptr %7, align 8
  %8 = call noundef ptr @_ZN6Thread7currentEv()
  call void @_ZN6Thread28entering_jvmti_env_iterationEv(ptr noundef nonnull align 8 dereferenceable(888) %8)
  ret void
}

; Function Attrs: mustprogress nounwind uwtable
define linkonce_odr hidden void @_ZN16JvmtiThreadState21clear_exception_stateEv(ptr noundef nonnull align 8 dereferenceable(184) %0) #1 comdat align 2 {
  %2 = alloca ptr, align 8
  store ptr %0, ptr %2, align 8
  %3 = load ptr, ptr %2, align 8
  %4 = getelementptr inbounds %class.JvmtiThreadState, ptr %3, i32 0, i32 10
  store i32 0, ptr %4, align 4
  ret void
}

; Function Attrs: mustprogress nounwind uwtable
define linkonce_odr hidden noundef zeroext i1 @_ZN16JvmtiThreadState21is_exception_detectedEv(ptr noundef nonnull align 8 dereferenceable(184) %0) #1 comdat align 2 {
  %2 = alloca ptr, align 8
  store ptr %0, ptr %2, align 8
  %3 = load ptr, ptr %2, align 8
  %4 = getelementptr inbounds %class.JvmtiThreadState, ptr %3, i32 0, i32 10
  %5 = load i32, ptr %4, align 4
  %6 = icmp eq i32 %5, 1
  ret i1 %6
}

; Function Attrs: mustprogress nounwind uwtable
define linkonce_odr hidden void @_ZN16JvmtiThreadState29clr_pending_step_for_earlyretEv(ptr noundef nonnull align 8 dereferenceable(184) %0) #1 comdat align 2 {
  %2 = alloca ptr, align 8
  store ptr %0, ptr %2, align 8
  %3 = load ptr, ptr %2, align 8
  %4 = getelementptr inbounds %class.JvmtiThreadState, ptr %3, i32 0, i32 8
  store i8 0, ptr %4, align 4
  ret void
}

; Function Attrs: mustprogress nounwind uwtable
define linkonce_odr hidden void @_ZN16JvmtiThreadState18clr_earlyret_valueEv(ptr noundef nonnull align 8 dereferenceable(184) %0) #1 comdat align 2 {
  %2 = alloca ptr, align 8
  store ptr %0, ptr %2, align 8
  %3 = load ptr, ptr %2, align 8
  %4 = getelementptr inbounds %class.JvmtiThreadState, ptr %3, i32 0, i32 27
  store i32 11, ptr %4, align 8
  %5 = getelementptr inbounds %class.JvmtiThreadState, ptr %3, i32 0, i32 28
  store i64 0, ptr %5, align 8
  ret void
}

; Function Attrs: mustprogress nounwind uwtable
define linkonce_odr hidden void @_ZN16JvmtiThreadState16set_earlyret_oopEP7oopDesc(ptr noundef nonnull align 8 dereferenceable(184) %0, ptr noundef %1) #1 comdat align 2 {
  %3 = alloca ptr, align 8
  %4 = alloca ptr, align 8
  store ptr %0, ptr %3, align 8
  store ptr %1, ptr %4, align 8
  %5 = load ptr, ptr %3, align 8
  %6 = load ptr, ptr %4, align 8
  %7 = getelementptr inbounds %class.JvmtiThreadState, ptr %5, i32 0, i32 29
  store ptr %6, ptr %7, align 8
  ret void
}

; Function Attrs: mustprogress nounwind uwtable
define linkonce_odr hidden void @_ZN16JvmtiThreadState20clr_earlyret_pendingEv(ptr noundef nonnull align 8 dereferenceable(184) %0) #1 comdat align 2 {
  %2 = alloca ptr, align 8
  store ptr %0, ptr %2, align 8
  %3 = load ptr, ptr %2, align 8
  %4 = getelementptr inbounds %class.JvmtiThreadState, ptr %3, i32 0, i32 26
  store i32 0, ptr %4, align 4
  ret void
}

; Function Attrs: mustprogress nounwind uwtable
define linkonce_odr hidden noundef zeroext i1 @_ZN16JvmtiThreadState19is_earlyret_pendingEv(ptr noundef nonnull align 8 dereferenceable(184) %0) #1 comdat align 2 {
  %2 = alloca ptr, align 8
  store ptr %0, ptr %2, align 8
  %3 = load ptr, ptr %2, align 8
  %4 = getelementptr inbounds %class.JvmtiThreadState, ptr %3, i32 0, i32 26
  %5 = load i32, ptr %4, align 4
  %6 = icmp eq i32 %5, 1
  ret i1 %6
}

; Function Attrs: mustprogress nounwind uwtable
define hidden void @_ZN16JvmtiThreadState33process_pending_step_for_earlyretEv(ptr noundef nonnull align 8 dereferenceable(184) %0) #1 align 2 {
  %2 = alloca ptr, align 8
  %3 = alloca %class.JvmtiEnvThreadStateIterator, align 8
  %4 = alloca ptr, align 8
  store ptr %0, ptr %2, align 8
  %5 = load ptr, ptr %2, align 8
  %6 = call noundef zeroext i1 @_ZN16JvmtiThreadState19is_earlyret_pendingEv(ptr noundef nonnull align 8 dereferenceable(184) %5)
  br i1 %6, label %7, label %8

7:                                                ; preds = %1
  call void @_ZN16JvmtiThreadState20clr_earlyret_pendingEv(ptr noundef nonnull align 8 dereferenceable(184) %5)
  call void @_ZN16JvmtiThreadState16set_earlyret_oopEP7oopDesc(ptr noundef nonnull align 8 dereferenceable(184) %5, ptr noundef null)
  call void @_ZN16JvmtiThreadState18clr_earlyret_valueEv(ptr noundef nonnull align 8 dereferenceable(184) %5)
  br label %8

8:                                                ; preds = %7, %1
  call void @_ZN16JvmtiThreadState29clr_pending_step_for_earlyretEv(ptr noundef nonnull align 8 dereferenceable(184) %5)
  %9 = call noundef zeroext i1 @_ZN16JvmtiThreadState21is_exception_detectedEv(ptr noundef nonnull align 8 dereferenceable(184) %5)
  br i1 %9, label %10, label %11

10:                                               ; preds = %8
  call void @_ZN16JvmtiThreadState21clear_exception_stateEv(ptr noundef nonnull align 8 dereferenceable(184) %5)
  br label %11

11:                                               ; preds = %10, %8
  call void @_ZN27JvmtiEnvThreadStateIteratorC2EP16JvmtiThreadState(ptr noundef nonnull align 8 dereferenceable(8) %3, ptr noundef %5)
  %12 = call noundef ptr @_ZN27JvmtiEnvThreadStateIterator5firstEv(ptr noundef nonnull align 8 dereferenceable(8) %3)
  store ptr %12, ptr %4, align 8
  br label %13

13:                                               ; preds = %18, %11
  %14 = load ptr, ptr %4, align 8
  %15 = icmp ne ptr %14, null
  br i1 %15, label %16, label %21

16:                                               ; preds = %13
  %17 = load ptr, ptr %4, align 8
  call void @_ZN19JvmtiEnvThreadState22clear_current_locationEv(ptr noundef nonnull align 8 dereferenceable(72) %17)
  br label %18

18:                                               ; preds = %16
  %19 = load ptr, ptr %4, align 8
  %20 = call noundef ptr @_ZN27JvmtiEnvThreadStateIterator4nextEP19JvmtiEnvThreadState(ptr noundef nonnull align 8 dereferenceable(8) %3, ptr noundef %19)
  store ptr %20, ptr %4, align 8
  br label %13, !llvm.loop !23

21:                                               ; preds = %13
  call void @_ZN27JvmtiEnvThreadStateIteratorD2Ev(ptr noundef nonnull align 8 dereferenceable(8) %3) #7
  ret void
}