; Function Attrs: mustprogress nofree norecurse nounwind uwtable
define hidden void @_ZN16JvmtiThreadState33process_pending_step_for_earlyretEv(ptr nocapture noundef nonnull align 8 dereferenceable(184) %0) local_unnamed_addr #7 align 2 {
  %2 = getelementptr inbounds i8, ptr %0, i64 156
  %3 = load i32, ptr %2, align 4
  %4 = icmp eq i32 %3, 1
  br i1 %4, label %5, label %9

5:                                                ; preds = %1
  store i32 0, ptr %2, align 4
  %6 = getelementptr inbounds i8, ptr %0, i64 176
  store ptr null, ptr %6, align 8
  %7 = getelementptr inbounds i8, ptr %0, i64 160
  store i32 11, ptr %7, align 8
  %8 = getelementptr inbounds i8, ptr %0, i64 168
  store i64 0, ptr %8, align 8
  br label %9

9:                                                ; preds = %5, %1
  %10 = getelementptr inbounds i8, ptr %0, i64 36
  store i8 0, ptr %10, align 4
  %11 = getelementptr inbounds i8, ptr %0, i64 44
  %12 = load i32, ptr %11, align 4
  %13 = icmp eq i32 %12, 1
  br i1 %13, label %14, label %15

14:                                               ; preds = %9
  store i32 0, ptr %11, align 4
  br label %15

15:                                               ; preds = %14, %9
  %16 = tail call align 8 ptr @llvm.threadlocal.address.p0(ptr align 8 @_ZN6Thread12_thr_currentE)
  %17 = load ptr, ptr %16, align 8
  %18 = getelementptr inbounds i8, ptr %17, i64 844
  %19 = load volatile i32, ptr %18, align 4
  %20 = add nsw i32 %19, 1
  store volatile i32 %20, ptr %18, align 4
  %21 = getelementptr inbounds i8, ptr %0, i64 88
  %.04 = load ptr, ptr %21, align 8
  %.not5 = icmp eq ptr %.04, null
  br i1 %.not5, label %._crit_edge, label %.lr.ph

.lr.ph:                                           ; preds = %15, %.lr.ph
  %.06 = phi ptr [ %.0, %.lr.ph ], [ %.04, %15 ]
  %22 = getelementptr inbounds i8, ptr %.06, i64 24
  store ptr null, ptr %22, align 8
  %23 = getelementptr inbounds i8, ptr %.06, i64 32
  store i32 0, ptr %23, align 8
  %24 = getelementptr inbounds i8, ptr %.06, i64 16
  %.0 = load ptr, ptr %24, align 8
  %.not = icmp eq ptr %.0, null
  br i1 %.not, label %._crit_edge, label %.lr.ph, !llvm.loop !31

._crit_edge:                                      ; preds = %.lr.ph, %15
  %25 = load volatile i32, ptr %18, align 4
  %26 = add nsw i32 %25, -1
  store volatile i32 %26, ptr %18, align 4
  ret void
}